; Function Attrs: nofree nosync nounwind memory(readwrite, inaccessiblemem: none) uwtable
define range(i32 -2147483647, -2147483648) i32 @Gia_NodeDeref_rec(ptr noundef %0, ptr noundef %1) local_unnamed_addr #19 {
  %.val = load i64, ptr %1, align 4
  %3 = and i64 %.val, 2684354559
  %narrow.i.not = icmp eq i64 %3, 2684354559
  br i1 %narrow.i.not, label %41, label %4

4:                                                ; preds = %2
  %5 = and i64 %.val, 536870911
  %6 = sub nsw i64 0, %5
  %7 = getelementptr inbounds %struct.Gia_Obj_t_, ptr %1, i64 %6
  %8 = getelementptr i8, ptr %0, i64 32
  %.val15 = load ptr, ptr %8, align 8
  %9 = getelementptr i8, ptr %0, i64 144
  %.val16 = load ptr, ptr %9, align 8
  %10 = ptrtoint ptr %7 to i64
  %11 = ptrtoint ptr %.val15 to i64
  %12 = sub i64 %10, %11
  %13 = sdiv exact i64 %12, 12
  %sext.i = shl i64 %13, 32
  %14 = ashr exact i64 %sext.i, 30
  %15 = getelementptr inbounds i8, ptr %.val16, i64 %14
  %16 = load i32, ptr %15, align 4
  %17 = add nsw i32 %16, -1
  store i32 %17, ptr %15, align 4
  %18 = icmp eq i32 %17, 0
  br i1 %18, label %19, label %21

19:                                               ; preds = %4
  %20 = tail call i32 @Gia_NodeDeref_rec(ptr noundef nonnull %0, ptr noundef nonnull %7)
  br label %21

21:                                               ; preds = %19, %4
  %.0 = phi i32 [ %20, %19 ], [ 0, %4 ]
  %22 = load i64, ptr %1, align 4
  %23 = lshr i64 %22, 32
  %24 = and i64 %23, 536870911
  %25 = sub nsw i64 0, %24
  %26 = getelementptr inbounds %struct.Gia_Obj_t_, ptr %1, i64 %25
  %.val17 = load ptr, ptr %8, align 8
  %.val18 = load ptr, ptr %9, align 8
  %27 = ptrtoint ptr %26 to i64
  %28 = ptrtoint ptr %.val17 to i64
  %29 = sub i64 %27, %28
  %30 = sdiv exact i64 %29, 12
  %sext.i19 = shl i64 %30, 32
  %31 = ashr exact i64 %sext.i19, 30
  %32 = getelementptr inbounds i8, ptr %.val18, i64 %31
  %33 = load i32, ptr %32, align 4
  %34 = add nsw i32 %33, -1
  store i32 %34, ptr %32, align 4
  %35 = icmp eq i32 %34, 0
  br i1 %35, label %36, label %39

36:                                               ; preds = %21
  %37 = tail call i32 @Gia_NodeDeref_rec(ptr noundef nonnull %0, ptr noundef nonnull %26)
  %38 = add nsw i32 %37, %.0
  br label %39

39:                                               ; preds = %36, %21
  %.1 = phi i32 [ %38, %36 ], [ %.0, %21 ]
  %40 = add nsw i32 %.1, 1
  br label %41

41:                                               ; preds = %2, %39
  %.014 = phi i32 [ %40, %39 ], [ 0, %2 ]
  ret i32 %.014
}